; Function Attrs: nounwind sspstrong uwtable
define dso_local void @tcg_gen_andc_i64(ptr noundef %0, ptr noundef %1, ptr noundef %2) local_unnamed_addr #2 {
  %4 = load i32, ptr @cpuinfo, align 4
  %5 = and i32 %4, 32
  %.not = icmp eq i32 %5, 0
  br i1 %.not, label %19, label %6

6:                                                ; preds = %3
  %7 = tail call align 8 ptr @llvm.threadlocal.address.p0(ptr align 8 @tcg_ctx)
  %8 = load ptr, ptr %7, align 8
  %9 = ptrtoint ptr %0 to i64
  %10 = getelementptr inbounds nuw i8, ptr %8, i64 %9
  %11 = ptrtoint ptr %10 to i64
  %12 = ptrtoint ptr %1 to i64
  %13 = getelementptr inbounds nuw i8, ptr %8, i64 %12
  %14 = ptrtoint ptr %13 to i64
  %15 = ptrtoint ptr %2 to i64
  %16 = getelementptr inbounds nuw i8, ptr %8, i64 %15
  %17 = ptrtoint ptr %16 to i64
  %18 = tail call ptr @tcg_gen_op3(i32 noundef 115, i32 noundef 1, i64 noundef %11, i64 noundef %14, i64 noundef %17)
  br label %40

19:                                               ; preds = %3
  %20 = tail call ptr @tcg_temp_ebb_new_i64() #6
  %21 = tail call align 8 ptr @llvm.threadlocal.address.p0(ptr align 8 @tcg_ctx)
  %22 = load ptr, ptr %21, align 8
  %23 = ptrtoint ptr %20 to i64
  %24 = getelementptr inbounds nuw i8, ptr %22, i64 %23
  %25 = ptrtoint ptr %24 to i64
  %26 = ptrtoint ptr %2 to i64
  %27 = getelementptr inbounds nuw i8, ptr %22, i64 %26
  %28 = ptrtoint ptr %27 to i64
  %29 = tail call ptr @tcg_gen_op2(i32 noundef 113, i32 noundef 1, i64 noundef %25, i64 noundef %28)
  %30 = load ptr, ptr %21, align 8
  %31 = ptrtoint ptr %0 to i64
  %32 = getelementptr inbounds nuw i8, ptr %30, i64 %31
  %33 = ptrtoint ptr %32 to i64
  %34 = ptrtoint ptr %1 to i64
  %35 = getelementptr inbounds nuw i8, ptr %30, i64 %34
  %36 = ptrtoint ptr %35 to i64
  %37 = getelementptr inbounds nuw i8, ptr %30, i64 %23
  %38 = ptrtoint ptr %37 to i64
  %39 = tail call ptr @tcg_gen_op3(i32 noundef 87, i32 noundef 1, i64 noundef %33, i64 noundef %36, i64 noundef %38)
  tail call void @tcg_temp_free_i64(ptr noundef %20) #6
  br label %40

40:                                               ; preds = %19, %6
  ret void
}